target datalayout = "e-m:e-p270:32:32-p271:32:32-p272:64:64-i64:64-i128:128-f80:128-n8:16:32:64-S128"
target triple = "x86_64-pc-linux-gnu"

%struct.Cov_Man_t_ = type { i32, i32, i32, ptr, ptr, ptr, ptr, i32, i32, ptr, ptr, ptr, ptr, ptr, ptr, i32, i32, i32, i32 }
%struct.Vec_Int_t_ = type { i32, i32, ptr }
%struct.Cov_Obj_t_ = type { [3 x ptr], ptr }
%struct.Vec_Ptr_t_ = type { i32, i32, ptr }

; Function Attrs: inlinehint nounwind uwtable
define internal void @Vec_PtrFree(ptr noundef %0) #4 {
  %2 = alloca ptr, align 8
  store ptr %0, ptr %2, align 8, !tbaa !52
  %3 = load ptr, ptr %2, align 8, !tbaa !52
  %4 = getelementptr inbounds nuw %struct.Vec_Ptr_t_, ptr %3, i32 0, i32 2
  %5 = load ptr, ptr %4, align 8, !tbaa !56
  %6 = icmp ne ptr %5, null
  br i1 %6, label %7, label %13

7:                                                ; preds = %1
  %8 = load ptr, ptr %2, align 8, !tbaa !52
  %9 = getelementptr inbounds nuw %struct.Vec_Ptr_t_, ptr %8, i32 0, i32 2
  %10 = load ptr, ptr %9, align 8, !tbaa !56
  call void @free(ptr noundef %10) #8
  %11 = load ptr, ptr %2, align 8, !tbaa !52
  %12 = getelementptr inbounds nuw %struct.Vec_Ptr_t_, ptr %11, i32 0, i32 2
  store ptr null, ptr %12, align 8, !tbaa !56
  br label %14

13:                                               ; preds = %1
  br label %14

14:                                               ; preds = %13, %7
  %15 = load ptr, ptr %2, align 8, !tbaa !52
  %16 = icmp ne ptr %15, null
  br i1 %16, label %17, label %19

17:                                               ; preds = %14
  %18 = load ptr, ptr %2, align 8, !tbaa !52
  call void @free(ptr noundef %18) #8
  store ptr null, ptr %2, align 8, !tbaa !52
  br label %20

19:                                               ; preds = %14
  br label %20

20:                                               ; preds = %19, %17
  ret void
}

; Function Attrs: inlinehint nounwind uwtable
define internal void @Vec_IntFree(ptr noundef %0) #4 {
  %2 = alloca ptr, align 8
  store ptr %0, ptr %2, align 8, !tbaa !48
  %3 = load ptr, ptr %2, align 8, !tbaa !48
  %4 = getelementptr inbounds nuw %struct.Vec_Int_t_, ptr %3, i32 0, i32 2
  %5 = load ptr, ptr %4, align 8, !tbaa !51
  %6 = icmp ne ptr %5, null
  br i1 %6, label %7, label %13

7:                                                ; preds = %1
  %8 = load ptr, ptr %2, align 8, !tbaa !48
  %9 = getelementptr inbounds nuw %struct.Vec_Int_t_, ptr %8, i32 0, i32 2
  %10 = load ptr, ptr %9, align 8, !tbaa !51
  call void @free(ptr noundef %10) #8
  %11 = load ptr, ptr %2, align 8, !tbaa !48
  %12 = getelementptr inbounds nuw %struct.Vec_Int_t_, ptr %11, i32 0, i32 2
  store ptr null, ptr %12, align 8, !tbaa !51
  br label %14

13:                                               ; preds = %1
  br label %14

14:                                               ; preds = %13, %7
  %15 = load ptr, ptr %2, align 8, !tbaa !48
  %16 = icmp ne ptr %15, null
  br i1 %16, label %17, label %19

17:                                               ; preds = %14
  %18 = load ptr, ptr %2, align 8, !tbaa !48
  call void @free(ptr noundef %18) #8
  store ptr null, ptr %2, align 8, !tbaa !48
  br label %20

19:                                               ; preds = %14
  br label %20

20:                                               ; preds = %19, %17
  ret void
}

; Function Attrs: nounwind uwtable
define void @Cov_ManFree(ptr noundef %0) #0 {
  %2 = alloca ptr, align 8
  %3 = alloca ptr, align 8
  %4 = alloca i32, align 4
  store ptr %0, ptr %2, align 8, !tbaa !10
  call void @llvm.lifetime.start.p0(i64 8, ptr %3) #8
  call void @llvm.lifetime.start.p0(i64 4, ptr %4) #8
  store i32 0, ptr %4, align 4, !tbaa !8
  br label %5

5:                                                ; preds = %30, %1
  %6 = load i32, ptr %4, align 4, !tbaa !8
  %7 = load ptr, ptr %2, align 8, !tbaa !10
  %8 = getelementptr inbounds nuw %struct.Cov_Man_t_, ptr %7, i32 0, i32 4
  %9 = load ptr, ptr %8, align 8, !tbaa !28
  %10 = getelementptr inbounds nuw %struct.Vec_Ptr_t_, ptr %9, i32 0, i32 1
  %11 = load i32, ptr %10, align 4, !tbaa !53
  %12 = icmp slt i32 %6, %11
  br i1 %12, label %13, label %33

13:                                               ; preds = %5
  %14 = load ptr, ptr %2, align 8, !tbaa !10
  %15 = getelementptr inbounds nuw %struct.Cov_Man_t_, ptr %14, i32 0, i32 4
  %16 = load ptr, ptr %15, align 8, !tbaa !28
  %17 = getelementptr inbounds nuw %struct.Vec_Ptr_t_, ptr %16, i32 0, i32 2
  %18 = load ptr, ptr %17, align 8, !tbaa !56
  %19 = load i32, ptr %4, align 4, !tbaa !8
  %20 = sext i32 %19 to i64
  %21 = getelementptr inbounds ptr, ptr %18, i64 %20
  %22 = load ptr, ptr %21, align 8, !tbaa !57
  %23 = getelementptr inbounds nuw %struct.Cov_Obj_t_, ptr %22, i32 0, i32 1
  %24 = load ptr, ptr %23, align 8, !tbaa !59
  store ptr %24, ptr %3, align 8, !tbaa !48
  %25 = load ptr, ptr %3, align 8, !tbaa !48
  %26 = icmp ne ptr %25, null
  br i1 %26, label %27, label %29

27:                                               ; preds = %13
  %28 = load ptr, ptr %3, align 8, !tbaa !48
  call void @Vec_IntFree(ptr noundef %28)
  br label %29

29:                                               ; preds = %27, %13
  br label %30

30:                                               ; preds = %29
  %31 = load i32, ptr %4, align 4, !tbaa !8
  %32 = add nsw i32 %31, 1
  store i32 %32, ptr %4, align 4, !tbaa !8
  br label %5, !llvm.loop !61

33:                                               ; preds = %5
  %34 = load ptr, ptr %2, align 8, !tbaa !10
  %35 = getelementptr inbounds nuw %struct.Cov_Man_t_, ptr %34, i32 0, i32 6
  %36 = load ptr, ptr %35, align 8, !tbaa !47
  call void @Min_ManFree(ptr noundef %36)
  %37 = load ptr, ptr %2, align 8, !tbaa !10
  %38 = getelementptr inbounds nuw %struct.Cov_Man_t_, ptr %37, i32 0, i32 4
  %39 = load ptr, ptr %38, align 8, !tbaa !28
  call void @Vec_PtrFree(ptr noundef %39)
  %40 = load ptr, ptr %2, align 8, !tbaa !10
  %41 = getelementptr inbounds nuw %struct.Cov_Man_t_, ptr %40, i32 0, i32 3
  %42 = load ptr, ptr %41, align 8, !tbaa !62
  call void @Vec_IntFree(ptr noundef %42)
  %43 = load ptr, ptr %2, align 8, !tbaa !10
  %44 = getelementptr inbounds nuw %struct.Cov_Man_t_, ptr %43, i32 0, i32 13
  %45 = load ptr, ptr %44, align 8, !tbaa !23
  call void @Vec_IntFree(ptr noundef %45)
  %46 = load ptr, ptr %2, align 8, !tbaa !10
  %47 = getelementptr inbounds nuw %struct.Cov_Man_t_, ptr %46, i32 0, i32 14
  %48 = load ptr, ptr %47, align 8, !tbaa !24
  call void @Vec_IntFree(ptr noundef %48)
  %49 = load ptr, ptr %2, align 8, !tbaa !10
  %50 = getelementptr inbounds nuw %struct.Cov_Man_t_, ptr %49, i32 0, i32 9
  %51 = load ptr, ptr %50, align 8, !tbaa !19
  call void @Vec_IntFree(ptr noundef %51)
  %52 = load ptr, ptr %2, align 8, !tbaa !10
  %53 = getelementptr inbounds nuw %struct.Cov_Man_t_, ptr %52, i32 0, i32 10
  %54 = load ptr, ptr %53, align 8, !tbaa !20
  call void @Vec_IntFree(ptr noundef %54)
  %55 = load ptr, ptr %2, align 8, !tbaa !10
  %56 = getelementptr inbounds nuw %struct.Cov_Man_t_, ptr %55, i32 0, i32 11
  %57 = load ptr, ptr %56, align 8, !tbaa !21
  call void @Vec_IntFree(ptr noundef %57)
  %58 = load ptr, ptr %2, align 8, !tbaa !10
  %59 = getelementptr inbounds nuw %struct.Cov_Man_t_, ptr %58, i32 0, i32 12
  %60 = load ptr, ptr %59, align 8, !tbaa !22
  call void @Vec_IntFree(ptr noundef %60)
  %61 = load ptr, ptr %2, align 8, !tbaa !10
  %62 = getelementptr inbounds nuw %struct.Cov_Man_t_, ptr %61, i32 0, i32 5
  %63 = load ptr, ptr %62, align 8, !tbaa !27
  %64 = icmp ne ptr %63, null
  br i1 %64, label %65, label %71

65:                                               ; preds = %33
  %66 = load ptr, ptr %2, align 8, !tbaa !10
  %67 = getelementptr inbounds nuw %struct.Cov_Man_t_, ptr %66, i32 0, i32 5
  %68 = load ptr, ptr %67, align 8, !tbaa !27
  call void @free(ptr noundef %68) #8
  %69 = load ptr, ptr %2, align 8, !tbaa !10
  %70 = getelementptr inbounds nuw %struct.Cov_Man_t_, ptr %69, i32 0, i32 5
  store ptr null, ptr %70, align 8, !tbaa !27
  br label %72

71:                                               ; preds = %33
  br label %72

72:                                               ; preds = %71, %65
  %73 = load ptr, ptr %2, align 8, !tbaa !10
  %74 = icmp ne ptr %73, null
  br i1 %74, label %75, label %77

75:                                               ; preds = %72
  %76 = load ptr, ptr %2, align 8, !tbaa !10
  call void @free(ptr noundef %76) #8
  store ptr null, ptr %2, align 8, !tbaa !10
  br label %78

77:                                               ; preds = %72
  br label %78

78:                                               ; preds = %77, %75
  call void @llvm.lifetime.end.p0(i64 4, ptr %4) #8
  call void @llvm.lifetime.end.p0(i64 8, ptr %3) #8
  ret void
}