; Function Attrs: nounwind uwtable
define void @Cov_ManFree(ptr noundef captures(none) %0) local_unnamed_addr #0 {
  %2 = getelementptr inbounds nuw i8, ptr %0, i64 24
  %3 = load ptr, ptr %2, align 8, !tbaa !44
  %4 = getelementptr inbounds nuw i8, ptr %3, i64 4
  %5 = load i32, ptr %4, align 4, !tbaa !39
  %6 = icmp sgt i32 %5, 0
  br i1 %6, label %.lr.ph, label %._crit_edge

.lr.ph:                                           ; preds = %1, %18
  %7 = phi ptr [ %19, %18 ], [ %3, %1 ]
  %indvars.iv = phi i64 [ %indvars.iv.next, %18 ], [ 0, %1 ]
  %8 = getelementptr inbounds nuw i8, ptr %7, i64 8
  %9 = load ptr, ptr %8, align 8, !tbaa !43
  %10 = getelementptr inbounds nuw ptr, ptr %9, i64 %indvars.iv
  %11 = load ptr, ptr %10, align 8, !tbaa !45
  %12 = getelementptr inbounds nuw i8, ptr %11, i64 24
  %13 = load ptr, ptr %12, align 8, !tbaa !50
  %.not24 = icmp eq ptr %13, null
  br i1 %.not24, label %18, label %14

14:                                               ; preds = %.lr.ph
  %15 = getelementptr inbounds nuw i8, ptr %13, i64 8
  %16 = load ptr, ptr %15, align 8, !tbaa !18
  %.not.i = icmp eq ptr %16, null
  br i1 %.not.i, label %Vec_IntFree.exit, label %17

17:                                               ; preds = %14
  tail call void @free(ptr noundef nonnull %16) #9
  br label %Vec_IntFree.exit

Vec_IntFree.exit:                                 ; preds = %14, %17
  tail call void @free(ptr noundef nonnull %13) #9
  %.pre = load ptr, ptr %2, align 8, !tbaa !44
  br label %18

18:                                               ; preds = %.lr.ph, %Vec_IntFree.exit
  %19 = phi ptr [ %7, %.lr.ph ], [ %.pre, %Vec_IntFree.exit ]
  %indvars.iv.next = add nuw nsw i64 %indvars.iv, 1
  %20 = getelementptr inbounds nuw i8, ptr %19, i64 4
  %21 = load i32, ptr %20, align 4, !tbaa !39
  %22 = sext i32 %21 to i64
  %23 = icmp slt i64 %indvars.iv.next, %22
  br i1 %23, label %.lr.ph, label %._crit_edge, !llvm.loop !52

._crit_edge:                                      ; preds = %18, %1
  %24 = getelementptr inbounds nuw i8, ptr %0, i64 40
  %25 = load ptr, ptr %24, align 8, !tbaa !49
  tail call void @Min_ManFree(ptr noundef %25) #9
  %26 = load ptr, ptr %2, align 8, !tbaa !44
  %27 = getelementptr inbounds nuw i8, ptr %26, i64 8
  %28 = load ptr, ptr %27, align 8, !tbaa !43
  %.not.i25 = icmp eq ptr %28, null
  br i1 %.not.i25, label %Vec_PtrFree.exit, label %29

29:                                               ; preds = %._crit_edge
  tail call void @free(ptr noundef nonnull %28) #9
  br label %Vec_PtrFree.exit

Vec_PtrFree.exit:                                 ; preds = %._crit_edge, %29
  tail call void @free(ptr noundef nonnull %26) #9
  %30 = getelementptr inbounds nuw i8, ptr %0, i64 16
  %31 = load ptr, ptr %30, align 8, !tbaa !53
  %32 = getelementptr inbounds nuw i8, ptr %31, i64 8
  %33 = load ptr, ptr %32, align 8, !tbaa !18
  %.not.i26 = icmp eq ptr %33, null
  br i1 %.not.i26, label %Vec_IntFree.exit27, label %34

34:                                               ; preds = %Vec_PtrFree.exit
  tail call void @free(ptr noundef nonnull %33) #9
  br label %Vec_IntFree.exit27

Vec_IntFree.exit27:                               ; preds = %Vec_PtrFree.exit, %34
  tail call void @free(ptr noundef nonnull %31) #9
  %35 = getelementptr inbounds nuw i8, ptr %0, i64 88
  %36 = load ptr, ptr %35, align 8, !tbaa !23
  %37 = getelementptr inbounds nuw i8, ptr %36, i64 8
  %38 = load ptr, ptr %37, align 8, !tbaa !18
  %.not.i28 = icmp eq ptr %38, null
  br i1 %.not.i28, label %Vec_IntFree.exit29, label %39

39:                                               ; preds = %Vec_IntFree.exit27
  tail call void @free(ptr noundef nonnull %38) #9
  br label %Vec_IntFree.exit29

Vec_IntFree.exit29:                               ; preds = %Vec_IntFree.exit27, %39
  tail call void @free(ptr noundef nonnull %36) #9
  %40 = getelementptr inbounds nuw i8, ptr %0, i64 96
  %41 = load ptr, ptr %40, align 8, !tbaa !25
  %42 = getelementptr inbounds nuw i8, ptr %41, i64 8
  %43 = load ptr, ptr %42, align 8, !tbaa !18
  %.not.i30 = icmp eq ptr %43, null
  br i1 %.not.i30, label %Vec_IntFree.exit31, label %44

44:                                               ; preds = %Vec_IntFree.exit29
  tail call void @free(ptr noundef nonnull %43) #9
  br label %Vec_IntFree.exit31

Vec_IntFree.exit31:                               ; preds = %Vec_IntFree.exit29, %44
  tail call void @free(ptr noundef nonnull %41) #9
  %45 = getelementptr inbounds nuw i8, ptr %0, i64 56
  %46 = load ptr, ptr %45, align 8, !tbaa !19
  %47 = getelementptr inbounds nuw i8, ptr %46, i64 8
  %48 = load ptr, ptr %47, align 8, !tbaa !18
  %.not.i32 = icmp eq ptr %48, null
  br i1 %.not.i32, label %Vec_IntFree.exit33, label %49

49:                                               ; preds = %Vec_IntFree.exit31
  tail call void @free(ptr noundef nonnull %48) #9
  br label %Vec_IntFree.exit33

Vec_IntFree.exit33:                               ; preds = %Vec_IntFree.exit31, %49
  tail call void @free(ptr noundef nonnull %46) #9
  %50 = getelementptr inbounds nuw i8, ptr %0, i64 64
  %51 = load ptr, ptr %50, align 8, !tbaa !20
  %52 = getelementptr inbounds nuw i8, ptr %51, i64 8
  %53 = load ptr, ptr %52, align 8, !tbaa !18
  %.not.i34 = icmp eq ptr %53, null
  br i1 %.not.i34, label %Vec_IntFree.exit35, label %54

54:                                               ; preds = %Vec_IntFree.exit33
  tail call void @free(ptr noundef nonnull %53) #9
  br label %Vec_IntFree.exit35

Vec_IntFree.exit35:                               ; preds = %Vec_IntFree.exit33, %54
  tail call void @free(ptr noundef nonnull %51) #9
  %55 = getelementptr inbounds nuw i8, ptr %0, i64 72
  %56 = load ptr, ptr %55, align 8, !tbaa !21
  %57 = getelementptr inbounds nuw i8, ptr %56, i64 8
  %58 = load ptr, ptr %57, align 8, !tbaa !18
  %.not.i36 = icmp eq ptr %58, null
  br i1 %.not.i36, label %Vec_IntFree.exit37, label %59

59:                                               ; preds = %Vec_IntFree.exit35
  tail call void @free(ptr noundef nonnull %58) #9
  br label %Vec_IntFree.exit37

Vec_IntFree.exit37:                               ; preds = %Vec_IntFree.exit35, %59
  tail call void @free(ptr noundef nonnull %56) #9
  %60 = getelementptr inbounds nuw i8, ptr %0, i64 80
  %61 = load ptr, ptr %60, align 8, !tbaa !22
  %62 = getelementptr inbounds nuw i8, ptr %61, i64 8
  %63 = load ptr, ptr %62, align 8, !tbaa !18
  %.not.i38 = icmp eq ptr %63, null
  br i1 %.not.i38, label %Vec_IntFree.exit39, label %64

64:                                               ; preds = %Vec_IntFree.exit37
  tail call void @free(ptr noundef nonnull %63) #9
  br label %Vec_IntFree.exit39

Vec_IntFree.exit39:                               ; preds = %Vec_IntFree.exit37, %64
  tail call void @free(ptr noundef nonnull %61) #9
  %65 = getelementptr inbounds nuw i8, ptr %0, i64 32
  %66 = load ptr, ptr %65, align 8, !tbaa !41
  %.not = icmp eq ptr %66, null
  br i1 %.not, label %68, label %67

67:                                               ; preds = %Vec_IntFree.exit39
  tail call void @free(ptr noundef nonnull %66) #9
  br label %68

68:                                               ; preds = %Vec_IntFree.exit39, %67
  tail call void @free(ptr noundef nonnull %0) #9
  ret void
}